target datalayout = "e-m:e-p270:32:32-p271:32:32-p272:64:64-i64:64-i128:128-f80:128-n8:16:32:64-S128"
target triple = "x86_64-pc-linux-gnu"

%struct.opj_poc = type { i32, i32, i32, i32, i32, i32, i32, i32, i32, i32, [5 x i8], i32, i32, i32, i32, i32, i32, i32, i32, i32, i32, i32, i32, i32, i32, i32, i32, i32, i32, i32, i32, i32, i32, i32, i32, i32 }

@.str.156 = private unnamed_addr constant [48 x i8] c"Not enough memory for checking the poc values.\0A\00", align 1
@.str.157 = private unnamed_addr constant [39 x i8] c"Missing packets possible loss of data\0A\00", align 1

; Function Attrs: inlinehint nounwind uwtable
define internal i32 @opj_uint_min(i32 noundef %0, i32 noundef %1) #3 {
  %3 = alloca i32, align 4
  %4 = alloca i32, align 4
  store i32 %0, ptr %3, align 4, !tbaa !3
  store i32 %1, ptr %4, align 4, !tbaa !3
  %5 = load i32, ptr %3, align 4, !tbaa !3
  %6 = load i32, ptr %4, align 4, !tbaa !3
  %7 = icmp ult i32 %5, %6
  br i1 %7, label %8, label %10

8:                                                ; preds = %2
  %9 = load i32, ptr %3, align 4, !tbaa !3
  br label %12

10:                                               ; preds = %2
  %11 = load i32, ptr %4, align 4, !tbaa !3
  br label %12

12:                                               ; preds = %10, %8
  %13 = phi i32 [ %9, %8 ], [ %11, %10 ]
  ret i32 %13
}

; Function Attrs: nounwind uwtable
define internal i32 @opj_j2k_check_poc_val(ptr noundef %0, i32 noundef %1, i32 noundef %2, i32 noundef %3, i32 noundef %4, i32 noundef %5, ptr noundef %6) #0 {
  %8 = alloca i32, align 4
  %9 = alloca ptr, align 8
  %10 = alloca i32, align 4
  %11 = alloca i32, align 4
  %12 = alloca i32, align 4
  %13 = alloca i32, align 4
  %14 = alloca i32, align 4
  %15 = alloca ptr, align 8
  %16 = alloca ptr, align 8
  %17 = alloca i32, align 4
  %18 = alloca i32, align 4
  %19 = alloca i32, align 4
  %20 = alloca i32, align 4
  %21 = alloca i32, align 4
  %22 = alloca i32, align 4
  %23 = alloca i32, align 4
  %24 = alloca i32, align 4
  %25 = alloca i32, align 4
  %26 = alloca i32, align 4
  %27 = alloca ptr, align 8
  %28 = alloca i32, align 4
  %29 = alloca i32, align 4
  %30 = alloca i32, align 4
  store ptr %0, ptr %9, align 8, !tbaa !121
  store i32 %1, ptr %10, align 4, !tbaa !3
  store i32 %2, ptr %11, align 4, !tbaa !3
  store i32 %3, ptr %12, align 4, !tbaa !3
  store i32 %4, ptr %13, align 4, !tbaa !3
  store i32 %5, ptr %14, align 4, !tbaa !3
  store ptr %6, ptr %15, align 8, !tbaa !48
  call void @llvm.lifetime.start.p0(i64 8, ptr %16) #10
  call void @llvm.lifetime.start.p0(i64 4, ptr %17) #10
  call void @llvm.lifetime.start.p0(i64 4, ptr %18) #10
  call void @llvm.lifetime.start.p0(i64 4, ptr %19) #10
  call void @llvm.lifetime.start.p0(i64 4, ptr %20) #10
  call void @llvm.lifetime.start.p0(i64 4, ptr %21) #10
  call void @llvm.lifetime.start.p0(i64 4, ptr %22) #10
  store i32 1, ptr %22, align 4, !tbaa !3
  call void @llvm.lifetime.start.p0(i64 4, ptr %23) #10
  %31 = load i32, ptr %13, align 4, !tbaa !3
  %32 = load i32, ptr %22, align 4, !tbaa !3
  %33 = mul i32 %31, %32
  store i32 %33, ptr %23, align 4, !tbaa !3
  call void @llvm.lifetime.start.p0(i64 4, ptr %24) #10
  %34 = load i32, ptr %12, align 4, !tbaa !3
  %35 = load i32, ptr %23, align 4, !tbaa !3
  %36 = mul i32 %34, %35
  store i32 %36, ptr %24, align 4, !tbaa !3
  call void @llvm.lifetime.start.p0(i64 4, ptr %25) #10
  store i32 0, ptr %25, align 4, !tbaa !3
  %37 = load i32, ptr %24, align 4, !tbaa !3
  %38 = zext i32 %37 to i64
  %39 = load i32, ptr %14, align 4, !tbaa !3
  %40 = zext i32 %39 to i64
  %41 = mul i64 %38, %40
  %42 = call ptr @opj_calloc(i64 noundef %41, i64 noundef 4)
  store ptr %42, ptr %16, align 8, !tbaa !134
  %43 = load ptr, ptr %16, align 8, !tbaa !134
  %44 = icmp eq ptr %43, null
  br i1 %44, label %45, label %48

45:                                               ; preds = %7
  %46 = load ptr, ptr %15, align 8, !tbaa !48
  %47 = call i32 (ptr, i32, ptr, ...) @opj_event_msg(ptr noundef %46, i32 noundef 1, ptr noundef @.str.156)
  store i32 0, ptr %8, align 4
  store i32 1, ptr %26, align 4
  br label %194

48:                                               ; preds = %7
  store i32 0, ptr %21, align 4, !tbaa !3
  br label %49

49:                                               ; preds = %140, %48
  %50 = load i32, ptr %21, align 4, !tbaa !3
  %51 = load i32, ptr %11, align 4, !tbaa !3
  %52 = icmp ult i32 %50, %51
  br i1 %52, label %53, label %143

53:                                               ; preds = %49
  call void @llvm.lifetime.start.p0(i64 8, ptr %27) #10
  %54 = load ptr, ptr %9, align 8, !tbaa !121
  %55 = load i32, ptr %21, align 4, !tbaa !3
  %56 = zext i32 %55 to i64
  %57 = getelementptr inbounds nuw %struct.opj_poc, ptr %54, i64 %56
  store ptr %57, ptr %27, align 8, !tbaa !121
  %58 = load i32, ptr %10, align 4, !tbaa !3
  %59 = add i32 %58, 1
  %60 = load ptr, ptr %27, align 8, !tbaa !121
  %61 = getelementptr inbounds nuw %struct.opj_poc, ptr %60, i32 0, i32 11
  %62 = load i32, ptr %61, align 4, !tbaa !119
  %63 = icmp eq i32 %59, %62
  br i1 %63, label %64, label %139

64:                                               ; preds = %53
  %65 = load i32, ptr %23, align 4, !tbaa !3
  %66 = load ptr, ptr %27, align 8, !tbaa !121
  %67 = getelementptr inbounds nuw %struct.opj_poc, ptr %66, i32 0, i32 0
  %68 = load i32, ptr %67, align 4, !tbaa !124
  %69 = mul i32 %65, %68
  store i32 %69, ptr %17, align 4, !tbaa !3
  %70 = load ptr, ptr %27, align 8, !tbaa !121
  %71 = getelementptr inbounds nuw %struct.opj_poc, ptr %70, i32 0, i32 0
  %72 = load i32, ptr %71, align 4, !tbaa !124
  store i32 %72, ptr %18, align 4, !tbaa !3
  br label %73

73:                                               ; preds = %135, %64
  %74 = load i32, ptr %18, align 4, !tbaa !3
  %75 = load ptr, ptr %27, align 8, !tbaa !121
  %76 = getelementptr inbounds nuw %struct.opj_poc, ptr %75, i32 0, i32 3
  %77 = load i32, ptr %76, align 4, !tbaa !126
  %78 = load i32, ptr %12, align 4, !tbaa !3
  %79 = call i32 @opj_uint_min(i32 noundef %77, i32 noundef %78)
  %80 = icmp ult i32 %74, %79
  br i1 %80, label %81, label %138

81:                                               ; preds = %73
  call void @llvm.lifetime.start.p0(i64 4, ptr %28) #10
  %82 = load i32, ptr %17, align 4, !tbaa !3
  %83 = load ptr, ptr %27, align 8, !tbaa !121
  %84 = getelementptr inbounds nuw %struct.opj_poc, ptr %83, i32 0, i32 1
  %85 = load i32, ptr %84, align 4, !tbaa !123
  %86 = load i32, ptr %22, align 4, !tbaa !3
  %87 = mul i32 %85, %86
  %88 = add i32 %82, %87
  store i32 %88, ptr %28, align 4, !tbaa !3
  %89 = load ptr, ptr %27, align 8, !tbaa !121
  %90 = getelementptr inbounds nuw %struct.opj_poc, ptr %89, i32 0, i32 1
  %91 = load i32, ptr %90, align 4, !tbaa !123
  store i32 %91, ptr %19, align 4, !tbaa !3
  br label %92

92:                                               ; preds = %128, %81
  %93 = load i32, ptr %19, align 4, !tbaa !3
  %94 = load ptr, ptr %27, align 8, !tbaa !121
  %95 = getelementptr inbounds nuw %struct.opj_poc, ptr %94, i32 0, i32 4
  %96 = load i32, ptr %95, align 4, !tbaa !127
  %97 = load i32, ptr %13, align 4, !tbaa !3
  %98 = call i32 @opj_uint_min(i32 noundef %96, i32 noundef %97)
  %99 = icmp ult i32 %93, %98
  br i1 %99, label %100, label %131

100:                                              ; preds = %92
  call void @llvm.lifetime.start.p0(i64 4, ptr %29) #10
  store i32 0, ptr %29, align 4, !tbaa !3
  call void @llvm.lifetime.start.p0(i64 4, ptr %30) #10
  %101 = load i32, ptr %28, align 4, !tbaa !3
  %102 = load i32, ptr %24, align 4, !tbaa !3
  %103 = mul i32 0, %102
  %104 = add i32 %101, %103
  store i32 %104, ptr %30, align 4, !tbaa !3
  store i32 0, ptr %20, align 4, !tbaa !3
  br label %105

105:                                              ; preds = %121, %100
  %106 = load i32, ptr %20, align 4, !tbaa !3
  %107 = load ptr, ptr %27, align 8, !tbaa !121
  %108 = getelementptr inbounds nuw %struct.opj_poc, ptr %107, i32 0, i32 2
  %109 = load i32, ptr %108, align 4, !tbaa !125
  %110 = load i32, ptr %14, align 4, !tbaa !3
  %111 = call i32 @opj_uint_min(i32 noundef %109, i32 noundef %110)
  %112 = icmp ult i32 %106, %111
  br i1 %112, label %113, label %124

113:                                              ; preds = %105
  %114 = load ptr, ptr %16, align 8, !tbaa !134
  %115 = load i32, ptr %30, align 4, !tbaa !3
  %116 = zext i32 %115 to i64
  %117 = getelementptr inbounds nuw i32, ptr %114, i64 %116
  store i32 1, ptr %117, align 4, !tbaa !3
  %118 = load i32, ptr %24, align 4, !tbaa !3
  %119 = load i32, ptr %30, align 4, !tbaa !3
  %120 = add i32 %119, %118
  store i32 %120, ptr %30, align 4, !tbaa !3
  br label %121

121:                                              ; preds = %113
  %122 = load i32, ptr %20, align 4, !tbaa !3
  %123 = add i32 %122, 1
  store i32 %123, ptr %20, align 4, !tbaa !3
  br label %105, !llvm.loop !178

124:                                              ; preds = %105
  %125 = load i32, ptr %22, align 4, !tbaa !3
  %126 = load i32, ptr %28, align 4, !tbaa !3
  %127 = add i32 %126, %125
  store i32 %127, ptr %28, align 4, !tbaa !3
  call void @llvm.lifetime.end.p0(i64 4, ptr %30) #10
  call void @llvm.lifetime.end.p0(i64 4, ptr %29) #10
  br label %128

128:                                              ; preds = %124
  %129 = load i32, ptr %19, align 4, !tbaa !3
  %130 = add i32 %129, 1
  store i32 %130, ptr %19, align 4, !tbaa !3
  br label %92, !llvm.loop !179

131:                                              ; preds = %92
  %132 = load i32, ptr %23, align 4, !tbaa !3
  %133 = load i32, ptr %17, align 4, !tbaa !3
  %134 = add i32 %133, %132
  store i32 %134, ptr %17, align 4, !tbaa !3
  call void @llvm.lifetime.end.p0(i64 4, ptr %28) #10
  br label %135

135:                                              ; preds = %131
  %136 = load i32, ptr %18, align 4, !tbaa !3
  %137 = add i32 %136, 1
  store i32 %137, ptr %18, align 4, !tbaa !3
  br label %73, !llvm.loop !180

138:                                              ; preds = %73
  br label %139

139:                                              ; preds = %138, %53
  call void @llvm.lifetime.end.p0(i64 8, ptr %27) #10
  br label %140

140:                                              ; preds = %139
  %141 = load i32, ptr %21, align 4, !tbaa !3
  %142 = add i32 %141, 1
  store i32 %142, ptr %21, align 4, !tbaa !3
  br label %49, !llvm.loop !181

143:                                              ; preds = %49
  store i32 0, ptr %17, align 4, !tbaa !3
  store i32 0, ptr %20, align 4, !tbaa !3
  br label %144

144:                                              ; preds = %179, %143
  %145 = load i32, ptr %20, align 4, !tbaa !3
  %146 = load i32, ptr %14, align 4, !tbaa !3
  %147 = icmp ult i32 %145, %146
  br i1 %147, label %148, label %182

148:                                              ; preds = %144
  store i32 0, ptr %18, align 4, !tbaa !3
  br label %149

149:                                              ; preds = %175, %148
  %150 = load i32, ptr %18, align 4, !tbaa !3
  %151 = load i32, ptr %12, align 4, !tbaa !3
  %152 = icmp ult i32 %150, %151
  br i1 %152, label %153, label %178

153:                                              ; preds = %149
  store i32 0, ptr %19, align 4, !tbaa !3
  br label %154

154:                                              ; preds = %171, %153
  %155 = load i32, ptr %19, align 4, !tbaa !3
  %156 = load i32, ptr %13, align 4, !tbaa !3
  %157 = icmp ult i32 %155, %156
  br i1 %157, label %158, label %174

158:                                              ; preds = %154
  %159 = load ptr, ptr %16, align 8, !tbaa !134
  %160 = load i32, ptr %17, align 4, !tbaa !3
  %161 = zext i32 %160 to i64
  %162 = getelementptr inbounds nuw i32, ptr %159, i64 %161
  %163 = load i32, ptr %162, align 4, !tbaa !3
  %164 = icmp ne i32 %163, 1
  %165 = zext i1 %164 to i32
  %166 = load i32, ptr %25, align 4, !tbaa !3
  %167 = or i32 %166, %165
  store i32 %167, ptr %25, align 4, !tbaa !3
  %168 = load i32, ptr %22, align 4, !tbaa !3
  %169 = load i32, ptr %17, align 4, !tbaa !3
  %170 = add i32 %169, %168
  store i32 %170, ptr %17, align 4, !tbaa !3
  br label %171

171:                                              ; preds = %158
  %172 = load i32, ptr %19, align 4, !tbaa !3
  %173 = add i32 %172, 1
  store i32 %173, ptr %19, align 4, !tbaa !3
  br label %154, !llvm.loop !182

174:                                              ; preds = %154
  br label %175

175:                                              ; preds = %174
  %176 = load i32, ptr %18, align 4, !tbaa !3
  %177 = add i32 %176, 1
  store i32 %177, ptr %18, align 4, !tbaa !3
  br label %149, !llvm.loop !183

178:                                              ; preds = %149
  br label %179

179:                                              ; preds = %178
  %180 = load i32, ptr %20, align 4, !tbaa !3
  %181 = add i32 %180, 1
  store i32 %181, ptr %20, align 4, !tbaa !3
  br label %144, !llvm.loop !184

182:                                              ; preds = %144
  %183 = load i32, ptr %25, align 4, !tbaa !3
  %184 = icmp ne i32 %183, 0
  br i1 %184, label %185, label %188

185:                                              ; preds = %182
  %186 = load ptr, ptr %15, align 8, !tbaa !48
  %187 = call i32 (ptr, i32, ptr, ...) @opj_event_msg(ptr noundef %186, i32 noundef 1, ptr noundef @.str.157)
  br label %188

188:                                              ; preds = %185, %182
  %189 = load ptr, ptr %16, align 8, !tbaa !134
  call void @opj_free(ptr noundef %189)
  %190 = load i32, ptr %25, align 4, !tbaa !3
  %191 = icmp ne i32 %190, 0
  %192 = xor i1 %191, true
  %193 = zext i1 %192 to i32
  store i32 %193, ptr %8, align 4
  store i32 1, ptr %26, align 4
  br label %194

194:                                              ; preds = %188, %45
  call void @llvm.lifetime.end.p0(i64 4, ptr %25) #10
  call void @llvm.lifetime.end.p0(i64 4, ptr %24) #10
  call void @llvm.lifetime.end.p0(i64 4, ptr %23) #10
  call void @llvm.lifetime.end.p0(i64 4, ptr %22) #10
  call void @llvm.lifetime.end.p0(i64 4, ptr %21) #10
  call void @llvm.lifetime.end.p0(i64 4, ptr %20) #10
  call void @llvm.lifetime.end.p0(i64 4, ptr %19) #10
  call void @llvm.lifetime.end.p0(i64 4, ptr %18) #10
  call void @llvm.lifetime.end.p0(i64 4, ptr %17) #10
  call void @llvm.lifetime.end.p0(i64 8, ptr %16) #10
  %195 = load i32, ptr %8, align 4
  ret i32 %195
}