; Function Attrs: nounwind uwtable
define internal fastcc void @opj_j2k_check_poc_val(ptr noundef nonnull readonly captures(none) %0, i32 noundef %1, i32 noundef %2, i32 noundef %3, i32 noundef %4, i32 noundef %5, ptr noundef %6) unnamed_addr #3 {
  %8 = mul i32 %4, %3
  %9 = zext i32 %8 to i64
  %10 = zext i32 %5 to i64
  %11 = mul nuw i64 %9, %10
  %12 = tail call ptr @opj_calloc(i64 noundef %11, i64 noundef 4) #21
  %13 = icmp eq ptr %12, null
  br i1 %13, label %15, label %.preheader79

.preheader79:                                     ; preds = %7
  %.not114 = icmp eq i32 %2, 0
  br i1 %.not114, label %.preheader77, label %.lr.ph90

.lr.ph90:                                         ; preds = %.preheader79
  %14 = add i32 %1, 1
  %wide.trip.count = zext i32 %2 to i64
  br label %30

15:                                               ; preds = %7
  %16 = tail call i32 (ptr, i32, ptr, ...) @opj_event_msg(ptr noundef %6, i32 noundef 1, ptr noundef nonnull @.str.156) #21
  br label %79

.preheader77:                                     ; preds = %.loopexit, %.preheader79
  %.not116 = icmp eq i32 %5, 0
  %.not117 = icmp eq i32 %3, 0
  %or.cond = or i1 %.not116, %.not117
  %.not118 = icmp eq i32 %4, 0
  %or.cond133 = or i1 %or.cond, %.not118
  br i1 %or.cond133, label %._crit_edge107.thread, label %.preheader76.us.us

.preheader76.us.us:                               ; preds = %.preheader77, %._crit_edge100.split.us.us.us
  %.1106.us.us = phi i32 [ %28, %._crit_edge100.split.us.us.us ], [ 0, %.preheader77 ]
  %.065105.us.us = phi i32 [ %23, %._crit_edge100.split.us.us.us ], [ 0, %.preheader77 ]
  %.173104.us.us = phi i32 [ %29, %._crit_edge100.split.us.us.us ], [ 0, %.preheader77 ]
  br label %.preheader.us.us.us

.preheader.us.us.us:                              ; preds = %._crit_edge95.us.us.us, %.preheader76.us.us
  %.299.us.us.us = phi i32 [ %.1106.us.us, %.preheader76.us.us ], [ %26, %._crit_edge95.us.us.us ]
  %.16698.us.us.us = phi i32 [ %.065105.us.us, %.preheader76.us.us ], [ %23, %._crit_edge95.us.us.us ]
  %.16997.us.us.us = phi i32 [ 0, %.preheader76.us.us ], [ %27, %._crit_edge95.us.us.us ]
  br label %17

17:                                               ; preds = %17, %.preheader.us.us.us
  %.393.us.us.us = phi i32 [ %.299.us.us.us, %.preheader.us.us.us ], [ %24, %17 ]
  %.26792.us.us.us = phi i32 [ %.16698.us.us.us, %.preheader.us.us.us ], [ %23, %17 ]
  %.17191.us.us.us = phi i32 [ 0, %.preheader.us.us.us ], [ %25, %17 ]
  %18 = zext i32 %.393.us.us.us to i64
  %19 = getelementptr inbounds nuw i32, ptr %12, i64 %18
  %20 = load i32, ptr %19, align 4, !tbaa !125
  %21 = icmp ne i32 %20, 1
  %22 = zext i1 %21 to i32
  %23 = or i32 %.26792.us.us.us, %22
  %24 = add i32 %.393.us.us.us, 1
  %25 = add nuw i32 %.17191.us.us.us, 1
  %exitcond123.not = icmp eq i32 %25, %4
  br i1 %exitcond123.not, label %._crit_edge95.us.us.us, label %17, !llvm.loop !163

._crit_edge95.us.us.us:                           ; preds = %17
  %26 = add i32 %4, %.299.us.us.us
  %27 = add nuw i32 %.16997.us.us.us, 1
  %exitcond124.not = icmp eq i32 %27, %3
  br i1 %exitcond124.not, label %._crit_edge100.split.us.us.us, label %.preheader.us.us.us, !llvm.loop !164

._crit_edge100.split.us.us.us:                    ; preds = %._crit_edge95.us.us.us
  %28 = add i32 %8, %.1106.us.us
  %29 = add nuw i32 %.173104.us.us, 1
  %exitcond125.not = icmp eq i32 %29, %5
  br i1 %exitcond125.not, label %._crit_edge107, label %.preheader76.us.us, !llvm.loop !165

30:                                               ; preds = %.lr.ph90, %.loopexit
  %indvars.iv = phi i64 [ 0, %.lr.ph90 ], [ %indvars.iv.next, %.loopexit ]
  %31 = getelementptr inbounds nuw %struct.opj_poc, ptr %0, i64 %indvars.iv
  %32 = getelementptr inbounds nuw i8, ptr %31, i64 48
  %33 = load i32, ptr %32, align 4, !tbaa !110
  %34 = icmp eq i32 %14, %33
  br i1 %34, label %35, label %.loopexit

35:                                               ; preds = %30
  %36 = load i32, ptr %31, align 4, !tbaa !113
  %37 = getelementptr inbounds nuw i8, ptr %31, i64 12
  %38 = load i32, ptr %37, align 4, !tbaa !115
  %39 = tail call noundef i32 @llvm.umin.i32(i32 %38, i32 %3)
  %40 = icmp ult i32 %36, %39
  br i1 %40, label %.lr.ph88, label %.loopexit

.lr.ph88:                                         ; preds = %35
  %41 = mul i32 %36, %4
  %42 = getelementptr inbounds nuw i8, ptr %31, i64 4
  %43 = getelementptr inbounds nuw i8, ptr %31, i64 16
  %44 = getelementptr inbounds nuw i8, ptr %31, i64 8
  %.pre = load i32, ptr %43, align 4, !tbaa !116
  br label %45

45:                                               ; preds = %.lr.ph88, %._crit_edge84
  %46 = phi i32 [ %38, %.lr.ph88 ], [ %69, %._crit_edge84 ]
  %47 = phi i32 [ %.pre, %.lr.ph88 ], [ %70, %._crit_edge84 ]
  %48 = phi i32 [ %.pre, %.lr.ph88 ], [ %71, %._crit_edge84 ]
  %.06486 = phi i32 [ %41, %.lr.ph88 ], [ %72, %._crit_edge84 ]
  %.06885 = phi i32 [ %36, %.lr.ph88 ], [ %73, %._crit_edge84 ]
  %49 = load i32, ptr %42, align 4, !tbaa !112
  %50 = tail call noundef i32 @llvm.umin.i32(i32 %48, i32 %4)
  %51 = icmp ult i32 %49, %50
  br i1 %51, label %.preheader78.preheader, label %._crit_edge84

.preheader78.preheader:                           ; preds = %45
  %52 = add i32 %49, %.06486
  %.pre126 = load i32, ptr %44, align 4, !tbaa !114
  br label %.preheader78

.preheader78:                                     ; preds = %.preheader78.preheader, %._crit_edge
  %53 = phi i32 [ %63, %._crit_edge ], [ %47, %.preheader78.preheader ]
  %54 = phi i32 [ %64, %._crit_edge ], [ %.pre126, %.preheader78.preheader ]
  %.06383 = phi i32 [ %65, %._crit_edge ], [ %52, %.preheader78.preheader ]
  %.07082 = phi i32 [ %66, %._crit_edge ], [ %49, %.preheader78.preheader ]
  %55 = tail call noundef i32 @llvm.umin.i32(i32 %54, i32 %5)
  %.not115 = icmp eq i32 %55, 0
  br i1 %.not115, label %._crit_edge, label %.lr.ph

.lr.ph:                                           ; preds = %.preheader78, %.lr.ph
  %.081 = phi i32 [ %58, %.lr.ph ], [ %.06383, %.preheader78 ]
  %.07280 = phi i32 [ %59, %.lr.ph ], [ 0, %.preheader78 ]
  %56 = zext i32 %.081 to i64
  %57 = getelementptr inbounds nuw i32, ptr %12, i64 %56
  store i32 1, ptr %57, align 4, !tbaa !125
  %58 = add i32 %.081, %8
  %59 = add nuw i32 %.07280, 1
  %60 = load i32, ptr %44, align 4, !tbaa !114
  %61 = tail call noundef i32 @llvm.umin.i32(i32 %60, i32 %5)
  %62 = icmp ult i32 %59, %61
  br i1 %62, label %.lr.ph, label %._crit_edge.loopexit, !llvm.loop !166

._crit_edge.loopexit:                             ; preds = %.lr.ph
  %.pre127 = load i32, ptr %43, align 4, !tbaa !116
  br label %._crit_edge

._crit_edge:                                      ; preds = %._crit_edge.loopexit, %.preheader78
  %63 = phi i32 [ %.pre127, %._crit_edge.loopexit ], [ %53, %.preheader78 ]
  %64 = phi i32 [ %60, %._crit_edge.loopexit ], [ %54, %.preheader78 ]
  %65 = add i32 %.06383, 1
  %66 = add nuw i32 %.07082, 1
  %67 = tail call noundef i32 @llvm.umin.i32(i32 %63, i32 %4)
  %68 = icmp ult i32 %66, %67
  br i1 %68, label %.preheader78, label %._crit_edge84.loopexit, !llvm.loop !167

._crit_edge84.loopexit:                           ; preds = %._crit_edge
  %.pre128 = load i32, ptr %37, align 4, !tbaa !115
  br label %._crit_edge84

._crit_edge84:                                    ; preds = %._crit_edge84.loopexit, %45
  %69 = phi i32 [ %.pre128, %._crit_edge84.loopexit ], [ %46, %45 ]
  %70 = phi i32 [ %63, %._crit_edge84.loopexit ], [ %47, %45 ]
  %71 = phi i32 [ %63, %._crit_edge84.loopexit ], [ %48, %45 ]
  %72 = add i32 %.06486, %4
  %73 = add nuw i32 %.06885, 1
  %74 = tail call noundef i32 @llvm.umin.i32(i32 %69, i32 %3)
  %75 = icmp ult i32 %73, %74
  br i1 %75, label %45, label %.loopexit, !llvm.loop !168

.loopexit:                                        ; preds = %._crit_edge84, %35, %30
  %indvars.iv.next = add nuw nsw i64 %indvars.iv, 1
  %exitcond.not = icmp eq i64 %indvars.iv.next, %wide.trip.count
  br i1 %exitcond.not, label %.preheader77, label %30, !llvm.loop !169

._crit_edge107:                                   ; preds = %._crit_edge100.split.us.us.us
  %76 = icmp eq i32 %23, 0
  br i1 %76, label %._crit_edge107.thread, label %77

77:                                               ; preds = %._crit_edge107
  %78 = tail call i32 (ptr, i32, ptr, ...) @opj_event_msg(ptr noundef %6, i32 noundef 1, ptr noundef nonnull @.str.157) #21
  br label %._crit_edge107.thread

._crit_edge107.thread:                            ; preds = %.preheader77, %77, %._crit_edge107
  tail call void @opj_free(ptr noundef nonnull %12) #21
  br label %79

79:                                               ; preds = %._crit_edge107.thread, %15
  ret void
}